; Function Attrs: nounwind uwtable
define dso_local ptr @gistjoinvector(ptr noundef %0, ptr noundef captures(none) %1, ptr noundef readonly captures(none) %2, i32 noundef %3) local_unnamed_addr #0 {
  %5 = load i32, ptr %1, align 4
  %6 = add i32 %5, %3
  %7 = sext i32 %6 to i64
  %8 = shl nsw i64 %7, 3
  %9 = tail call ptr @repalloc(ptr noundef %0, i64 noundef %8) #11
  %10 = load i32, ptr %1, align 4
  %11 = sext i32 %10 to i64
  %12 = getelementptr inbounds ptr, ptr %9, i64 %11
  %13 = sext i32 %3 to i64
  %14 = shl nsw i64 %13, 3
  tail call void @llvm.memmove.p0.p0.i64(ptr align 8 %12, ptr align 8 %2, i64 %14, i1 false)
  %15 = load i32, ptr %1, align 4
  %16 = add i32 %15, %3
  store i32 %16, ptr %1, align 4
  ret ptr %9
}